target datalayout = "e-m:e-p270:32:32-p271:32:32-p272:64:64-i64:64-i128:128-f80:128-n8:16:32:64-S128"
target triple = "x86_64-pc-linux-gnu"

%struct.jpeg_decompress_struct = type { ptr, ptr, ptr, ptr, i32, i32, ptr, i32, i32, i32, i32, i32, i32, i32, double, i32, i32, i32, i32, i32, i32, i32, i32, i32, i32, i32, i32, i32, i32, i32, i32, i32, i32, ptr, i32, i32, i32, i32, i32, ptr, [4 x ptr], [4 x ptr], [4 x ptr], i32, ptr, i32, i32, [16 x i8], [16 x i8], [16 x i8], i32, i32, i8, i8, i8, i16, i16, i32, i8, i32, ptr, i32, i32, i32, i32, ptr, i32, [4 x ptr], i32, i32, i32, [10 x i32], i32, i32, i32, i32, i32, ptr, ptr, ptr, ptr, ptr, ptr, ptr, ptr, ptr, ptr, ptr }
%struct.my_cquantizer = type { %struct.jpeg_color_quantizer, ptr, i32, ptr, i32, [4 x i32], i32, [4 x ptr], [4 x ptr], i32 }
%struct.jpeg_color_quantizer = type { ptr, ptr, ptr, ptr }

; Function Attrs: nounwind uwtable
define internal void @quantize_fs_dither(ptr noundef %0, ptr noundef %1, ptr noundef %2, i32 noundef %3) #0 {
  %5 = alloca ptr, align 8
  %6 = alloca ptr, align 8
  %7 = alloca ptr, align 8
  %8 = alloca i32, align 4
  %9 = alloca ptr, align 8
  %10 = alloca i32, align 4
  %11 = alloca i32, align 4
  %12 = alloca i32, align 4
  %13 = alloca i32, align 4
  %14 = alloca i32, align 4
  %15 = alloca ptr, align 8
  %16 = alloca ptr, align 8
  %17 = alloca ptr, align 8
  %18 = alloca ptr, align 8
  %19 = alloca ptr, align 8
  %20 = alloca i32, align 4
  %21 = alloca i32, align 4
  %22 = alloca i32, align 4
  %23 = alloca i32, align 4
  %24 = alloca i32, align 4
  %25 = alloca i32, align 4
  %26 = alloca i32, align 4
  %27 = alloca i32, align 4
  %28 = alloca ptr, align 8
  store ptr %0, ptr %5, align 8
  store ptr %1, ptr %6, align 8
  store ptr %2, ptr %7, align 8
  store i32 %3, ptr %8, align 4
  %29 = load ptr, ptr %5, align 8
  %30 = getelementptr inbounds %struct.jpeg_decompress_struct, ptr %29, i32 0, i32 87
  %31 = load ptr, ptr %30, align 8
  store ptr %31, ptr %9, align 8
  %32 = load ptr, ptr %5, align 8
  %33 = getelementptr inbounds %struct.jpeg_decompress_struct, ptr %32, i32 0, i32 29
  %34 = load i32, ptr %33, align 8
  store i32 %34, ptr %21, align 4
  %35 = load ptr, ptr %5, align 8
  %36 = getelementptr inbounds %struct.jpeg_decompress_struct, ptr %35, i32 0, i32 27
  %37 = load i32, ptr %36, align 8
  store i32 %37, ptr %27, align 4
  %38 = load ptr, ptr %5, align 8
  %39 = getelementptr inbounds %struct.jpeg_decompress_struct, ptr %38, i32 0, i32 65
  %40 = load ptr, ptr %39, align 8
  store ptr %40, ptr %28, align 8
  store i32 0, ptr %25, align 4
  br label %41

41:                                               ; preds = %225, %4
  %42 = load i32, ptr %25, align 4
  %43 = load i32, ptr %8, align 4
  %44 = icmp slt i32 %42, %43
  br i1 %44, label %45, label %228

45:                                               ; preds = %41
  %46 = load ptr, ptr %7, align 8
  %47 = load i32, ptr %25, align 4
  %48 = sext i32 %47 to i64
  %49 = getelementptr inbounds ptr, ptr %46, i64 %48
  %50 = load ptr, ptr %49, align 8
  %51 = load i32, ptr %27, align 4
  %52 = zext i32 %51 to i64
  %53 = mul i64 %52, 1
  call void @jZeroFar(ptr noundef %50, i64 noundef %53)
  store i32 0, ptr %24, align 4
  br label %54

54:                                               ; preds = %214, %45
  %55 = load i32, ptr %24, align 4
  %56 = load i32, ptr %21, align 4
  %57 = icmp slt i32 %55, %56
  br i1 %57, label %58, label %217

58:                                               ; preds = %54
  %59 = load ptr, ptr %6, align 8
  %60 = load i32, ptr %25, align 4
  %61 = sext i32 %60 to i64
  %62 = getelementptr inbounds ptr, ptr %59, i64 %61
  %63 = load ptr, ptr %62, align 8
  %64 = load i32, ptr %24, align 4
  %65 = sext i32 %64 to i64
  %66 = getelementptr inbounds i8, ptr %63, i64 %65
  store ptr %66, ptr %16, align 8
  %67 = load ptr, ptr %7, align 8
  %68 = load i32, ptr %25, align 4
  %69 = sext i32 %68 to i64
  %70 = getelementptr inbounds ptr, ptr %67, i64 %69
  %71 = load ptr, ptr %70, align 8
  store ptr %71, ptr %17, align 8
  %72 = load ptr, ptr %9, align 8
  %73 = getelementptr inbounds %struct.my_cquantizer, ptr %72, i32 0, i32 9
  %74 = load i32, ptr %73, align 8
  %75 = icmp ne i32 %74, 0
  br i1 %75, label %76, label %101

76:                                               ; preds = %58
  %77 = load i32, ptr %27, align 4
  %78 = sub i32 %77, 1
  %79 = load i32, ptr %21, align 4
  %80 = mul i32 %78, %79
  %81 = load ptr, ptr %16, align 8
  %82 = zext i32 %80 to i64
  %83 = getelementptr inbounds i8, ptr %81, i64 %82
  store ptr %83, ptr %16, align 8
  %84 = load i32, ptr %27, align 4
  %85 = sub i32 %84, 1
  %86 = load ptr, ptr %17, align 8
  %87 = zext i32 %85 to i64
  %88 = getelementptr inbounds i8, ptr %86, i64 %87
  store ptr %88, ptr %17, align 8
  store i32 -1, ptr %22, align 4
  %89 = load i32, ptr %21, align 4
  %90 = sub nsw i32 0, %89
  store i32 %90, ptr %23, align 4
  %91 = load ptr, ptr %9, align 8
  %92 = getelementptr inbounds %struct.my_cquantizer, ptr %91, i32 0, i32 8
  %93 = load i32, ptr %24, align 4
  %94 = sext i32 %93 to i64
  %95 = getelementptr inbounds [4 x ptr], ptr %92, i64 0, i64 %94
  %96 = load ptr, ptr %95, align 8
  %97 = load i32, ptr %27, align 4
  %98 = add i32 %97, 1
  %99 = zext i32 %98 to i64
  %100 = getelementptr inbounds i16, ptr %96, i64 %99
  store ptr %100, ptr %15, align 8
  br label %109

101:                                              ; preds = %58
  store i32 1, ptr %22, align 4
  %102 = load i32, ptr %21, align 4
  store i32 %102, ptr %23, align 4
  %103 = load ptr, ptr %9, align 8
  %104 = getelementptr inbounds %struct.my_cquantizer, ptr %103, i32 0, i32 8
  %105 = load i32, ptr %24, align 4
  %106 = sext i32 %105 to i64
  %107 = getelementptr inbounds [4 x ptr], ptr %104, i64 0, i64 %106
  %108 = load ptr, ptr %107, align 8
  store ptr %108, ptr %15, align 8
  br label %109

109:                                              ; preds = %101, %76
  %110 = load ptr, ptr %9, align 8
  %111 = getelementptr inbounds %struct.my_cquantizer, ptr %110, i32 0, i32 3
  %112 = load ptr, ptr %111, align 8
  %113 = load i32, ptr %24, align 4
  %114 = sext i32 %113 to i64
  %115 = getelementptr inbounds ptr, ptr %112, i64 %114
  %116 = load ptr, ptr %115, align 8
  store ptr %116, ptr %18, align 8
  %117 = load ptr, ptr %9, align 8
  %118 = getelementptr inbounds %struct.my_cquantizer, ptr %117, i32 0, i32 1
  %119 = load ptr, ptr %118, align 8
  %120 = load i32, ptr %24, align 4
  %121 = sext i32 %120 to i64
  %122 = getelementptr inbounds ptr, ptr %119, i64 %121
  %123 = load ptr, ptr %122, align 8
  store ptr %123, ptr %19, align 8
  store i32 0, ptr %10, align 4
  store i32 0, ptr %12, align 4
  store i32 0, ptr %11, align 4
  %124 = load i32, ptr %27, align 4
  store i32 %124, ptr %26, align 4
  br label %125

125:                                              ; preds = %206, %109
  %126 = load i32, ptr %26, align 4
  %127 = icmp ugt i32 %126, 0
  br i1 %127, label %128, label %209

128:                                              ; preds = %125
  %129 = load i32, ptr %10, align 4
  %130 = load ptr, ptr %15, align 8
  %131 = load i32, ptr %22, align 4
  %132 = sext i32 %131 to i64
  %133 = getelementptr inbounds i16, ptr %130, i64 %132
  %134 = load i16, ptr %133, align 2
  %135 = sext i16 %134 to i32
  %136 = add nsw i32 %129, %135
  %137 = add nsw i32 %136, 8
  %138 = ashr i32 %137, 4
  store i32 %138, ptr %10, align 4
  %139 = load ptr, ptr %16, align 8
  %140 = load i8, ptr %139, align 1
  %141 = zext i8 %140 to i32
  %142 = load i32, ptr %10, align 4
  %143 = add nsw i32 %142, %141
  store i32 %143, ptr %10, align 4
  %144 = load ptr, ptr %28, align 8
  %145 = load i32, ptr %10, align 4
  %146 = sext i32 %145 to i64
  %147 = getelementptr inbounds i8, ptr %144, i64 %146
  %148 = load i8, ptr %147, align 1
  %149 = zext i8 %148 to i32
  store i32 %149, ptr %10, align 4
  %150 = load ptr, ptr %18, align 8
  %151 = load i32, ptr %10, align 4
  %152 = sext i32 %151 to i64
  %153 = getelementptr inbounds i8, ptr %150, i64 %152
  %154 = load i8, ptr %153, align 1
  %155 = zext i8 %154 to i32
  store i32 %155, ptr %20, align 4
  %156 = load i32, ptr %20, align 4
  %157 = trunc i32 %156 to i8
  %158 = zext i8 %157 to i32
  %159 = load ptr, ptr %17, align 8
  %160 = load i8, ptr %159, align 1
  %161 = zext i8 %160 to i32
  %162 = add nsw i32 %161, %158
  %163 = trunc i32 %162 to i8
  store i8 %163, ptr %159, align 1
  %164 = load ptr, ptr %19, align 8
  %165 = load i32, ptr %20, align 4
  %166 = sext i32 %165 to i64
  %167 = getelementptr inbounds i8, ptr %164, i64 %166
  %168 = load i8, ptr %167, align 1
  %169 = zext i8 %168 to i32
  %170 = load i32, ptr %10, align 4
  %171 = sub nsw i32 %170, %169
  store i32 %171, ptr %10, align 4
  %172 = load i32, ptr %10, align 4
  store i32 %172, ptr %13, align 4
  %173 = load i32, ptr %10, align 4
  %174 = mul nsw i32 %173, 2
  store i32 %174, ptr %14, align 4
  %175 = load i32, ptr %14, align 4
  %176 = load i32, ptr %10, align 4
  %177 = add nsw i32 %176, %175
  store i32 %177, ptr %10, align 4
  %178 = load i32, ptr %12, align 4
  %179 = load i32, ptr %10, align 4
  %180 = add nsw i32 %178, %179
  %181 = trunc i32 %180 to i16
  %182 = load ptr, ptr %15, align 8
  %183 = getelementptr inbounds i16, ptr %182, i64 0
  store i16 %181, ptr %183, align 2
  %184 = load i32, ptr %14, align 4
  %185 = load i32, ptr %10, align 4
  %186 = add nsw i32 %185, %184
  store i32 %186, ptr %10, align 4
  %187 = load i32, ptr %11, align 4
  %188 = load i32, ptr %10, align 4
  %189 = add nsw i32 %187, %188
  store i32 %189, ptr %12, align 4
  %190 = load i32, ptr %13, align 4
  store i32 %190, ptr %11, align 4
  %191 = load i32, ptr %14, align 4
  %192 = load i32, ptr %10, align 4
  %193 = add nsw i32 %192, %191
  store i32 %193, ptr %10, align 4
  %194 = load i32, ptr %23, align 4
  %195 = load ptr, ptr %16, align 8
  %196 = sext i32 %194 to i64
  %197 = getelementptr inbounds i8, ptr %195, i64 %196
  store ptr %197, ptr %16, align 8
  %198 = load i32, ptr %22, align 4
  %199 = load ptr, ptr %17, align 8
  %200 = sext i32 %198 to i64
  %201 = getelementptr inbounds i8, ptr %199, i64 %200
  store ptr %201, ptr %17, align 8
  %202 = load i32, ptr %22, align 4
  %203 = load ptr, ptr %15, align 8
  %204 = sext i32 %202 to i64
  %205 = getelementptr inbounds i16, ptr %203, i64 %204
  store ptr %205, ptr %15, align 8
  br label %206

206:                                              ; preds = %128
  %207 = load i32, ptr %26, align 4
  %208 = add i32 %207, -1
  store i32 %208, ptr %26, align 4
  br label %125, !llvm.loop !29

209:                                              ; preds = %125
  %210 = load i32, ptr %12, align 4
  %211 = trunc i32 %210 to i16
  %212 = load ptr, ptr %15, align 8
  %213 = getelementptr inbounds i16, ptr %212, i64 0
  store i16 %211, ptr %213, align 2
  br label %214

214:                                              ; preds = %209
  %215 = load i32, ptr %24, align 4
  %216 = add nsw i32 %215, 1
  store i32 %216, ptr %24, align 4
  br label %54, !llvm.loop !30

217:                                              ; preds = %54
  %218 = load ptr, ptr %9, align 8
  %219 = getelementptr inbounds %struct.my_cquantizer, ptr %218, i32 0, i32 9
  %220 = load i32, ptr %219, align 8
  %221 = icmp ne i32 %220, 0
  %222 = select i1 %221, i32 0, i32 1
  %223 = load ptr, ptr %9, align 8
  %224 = getelementptr inbounds %struct.my_cquantizer, ptr %223, i32 0, i32 9
  store i32 %222, ptr %224, align 8
  br label %225

225:                                              ; preds = %217
  %226 = load i32, ptr %25, align 4
  %227 = add nsw i32 %226, 1
  store i32 %227, ptr %25, align 4
  br label %41, !llvm.loop !31

228:                                              ; preds = %41
  ret void
}