; Function Attrs: nounwind uwtable
define internal void @quantize_fs_dither(ptr nocapture noundef readonly %0, ptr nocapture noundef readonly %1, ptr nocapture noundef readonly %2, i32 noundef %3) #0 {
  %5 = getelementptr inbounds i8, ptr %0, i64 144
  %6 = load i32, ptr %5, align 8
  %.fr112 = freeze i32 %6
  %7 = getelementptr inbounds i8, ptr %0, i64 136
  %8 = load i32, ptr %7, align 8
  %.fr = freeze i32 %8
  %9 = getelementptr inbounds i8, ptr %0, i64 424
  %10 = load ptr, ptr %9, align 8
  %11 = icmp sgt i32 %3, 0
  br i1 %11, label %.lr.ph105, label %._crit_edge106

.lr.ph105:                                        ; preds = %4
  %12 = getelementptr inbounds i8, ptr %0, i64 624
  %13 = load ptr, ptr %12, align 8
  %14 = zext i32 %.fr to i64
  %15 = icmp sgt i32 %.fr112, 0
  %16 = getelementptr inbounds i8, ptr %13, i64 144
  %17 = add i32 %.fr, -1
  %18 = mul i32 %17, %.fr112
  %19 = zext i32 %18 to i64
  %20 = zext i32 %17 to i64
  %21 = sub nsw i32 0, %.fr112
  %22 = getelementptr inbounds i8, ptr %13, i64 112
  %23 = add i32 %.fr, 1
  %24 = zext i32 %23 to i64
  %25 = getelementptr inbounds i8, ptr %13, i64 48
  %26 = getelementptr inbounds i8, ptr %13, i64 32
  br i1 %15, label %.lr.ph105.split.us, label %.lr.ph105.split.preheader

.lr.ph105.split.preheader:                        ; preds = %.lr.ph105
  %wide.trip.count = zext nneg i32 %3 to i64
  br label %.lr.ph105.split

.lr.ph105.split.us:                               ; preds = %.lr.ph105
  %.not8990 = icmp eq i32 %.fr, 0
  %wide.trip.count135 = zext nneg i32 %3 to i64
  %wide.trip.count130 = zext nneg i32 %.fr112 to i64
  br i1 %.not8990, label %.lr.ph101.us.us, label %.lr.ph101.us

.lr.ph101.us.us:                                  ; preds = %.lr.ph105.split.us, %._crit_edge102.split.us.us.us
  %indvars.iv132 = phi i64 [ %indvars.iv.next133, %._crit_edge102.split.us.us.us ], [ 0, %.lr.ph105.split.us ]
  %27 = getelementptr inbounds ptr, ptr %2, i64 %indvars.iv132
  %28 = load ptr, ptr %27, align 8
  tail call void @jZeroFar(ptr noundef %28, i64 noundef %14) #6
  br label %29

29:                                               ; preds = %29, %.lr.ph101.us.us
  %indvars.iv127 = phi i64 [ %indvars.iv.next128, %29 ], [ 0, %.lr.ph101.us.us ]
  %30 = load i32, ptr %16, align 8
  %.not88.us.us.us = icmp eq i32 %30, 0
  %31 = getelementptr inbounds [4 x ptr], ptr %22, i64 0, i64 %indvars.iv127
  %32 = load ptr, ptr %31, align 8
  %.082.us.us.us.idx = select i1 %.not88.us.us.us, i64 0, i64 %24
  %.082.us.us.us = getelementptr inbounds i16, ptr %32, i64 %.082.us.us.us.idx
  store i16 0, ptr %.082.us.us.us, align 2
  %indvars.iv.next128 = add nuw nsw i64 %indvars.iv127, 1
  %exitcond131.not = icmp eq i64 %indvars.iv.next128, %wide.trip.count130
  br i1 %exitcond131.not, label %._crit_edge102.split.us.us.us, label %29, !llvm.loop !35

._crit_edge102.split.us.us.us:                    ; preds = %29
  %33 = load i32, ptr %16, align 8
  %.not.us.us = icmp eq i32 %33, 0
  %34 = zext i1 %.not.us.us to i32
  store i32 %34, ptr %16, align 8
  %indvars.iv.next133 = add nuw nsw i64 %indvars.iv132, 1
  %exitcond136.not = icmp eq i64 %indvars.iv.next133, %wide.trip.count135
  br i1 %exitcond136.not, label %._crit_edge106, label %.lr.ph101.us.us, !llvm.loop !36

.lr.ph101.us:                                     ; preds = %.lr.ph105.split.us, %._crit_edge102.split.us110
  %indvars.iv122 = phi i64 [ %indvars.iv.next123, %._crit_edge102.split.us110 ], [ 0, %.lr.ph105.split.us ]
  %35 = getelementptr inbounds ptr, ptr %2, i64 %indvars.iv122
  %36 = load ptr, ptr %35, align 8
  tail call void @jZeroFar(ptr noundef %36, i64 noundef %14) #6
  %37 = getelementptr inbounds ptr, ptr %1, i64 %indvars.iv122
  br label %38

38:                                               ; preds = %.lr.ph101.us, %._crit_edge.us
  %indvars.iv117 = phi i64 [ 0, %.lr.ph101.us ], [ %indvars.iv.next118, %._crit_edge.us ]
  %39 = load ptr, ptr %37, align 8
  %40 = getelementptr inbounds i8, ptr %39, i64 %indvars.iv117
  %41 = load ptr, ptr %35, align 8
  %42 = load i32, ptr %16, align 8
  %.not88.us108 = icmp eq i32 %42, 0
  br i1 %.not88.us108, label %49, label %43

43:                                               ; preds = %38
  %44 = getelementptr inbounds i8, ptr %40, i64 %19
  %45 = getelementptr inbounds i8, ptr %41, i64 %20
  %46 = getelementptr inbounds [4 x ptr], ptr %22, i64 0, i64 %indvars.iv117
  %47 = load ptr, ptr %46, align 8
  %48 = getelementptr inbounds i16, ptr %47, i64 %24
  br label %.lr.ph.us

49:                                               ; preds = %38
  %50 = getelementptr inbounds [4 x ptr], ptr %22, i64 0, i64 %indvars.iv117
  %51 = load ptr, ptr %50, align 8
  br label %.lr.ph.us

.lr.ph.us:                                        ; preds = %49, %43
  %.085.us = phi ptr [ %45, %43 ], [ %41, %49 ]
  %.083.us = phi ptr [ %44, %43 ], [ %40, %49 ]
  %.082.us109 = phi ptr [ %48, %43 ], [ %51, %49 ]
  %.080.us = phi i64 [ -1, %43 ], [ 1, %49 ]
  %.079.us = phi i32 [ %21, %43 ], [ %.fr112, %49 ]
  %52 = load ptr, ptr %25, align 8
  %53 = getelementptr inbounds ptr, ptr %52, i64 %indvars.iv117
  %54 = load ptr, ptr %53, align 8
  %55 = load ptr, ptr %26, align 8
  %56 = getelementptr inbounds ptr, ptr %55, i64 %indvars.iv117
  %57 = load ptr, ptr %56, align 8
  %58 = sext i32 %.079.us to i64
  br label %59

59:                                               ; preds = %59, %.lr.ph.us
  %.097.us = phi i32 [ 0, %.lr.ph.us ], [ %88, %59 ]
  %.07596.us = phi i32 [ 0, %.lr.ph.us ], [ %82, %59 ]
  %.07695.us = phi i32 [ %.fr, %.lr.ph.us ], [ %91, %59 ]
  %.08194.us = phi i32 [ 0, %.lr.ph.us ], [ %87, %59 ]
  %.193.us = phi ptr [ %.082.us109, %.lr.ph.us ], [ %60, %59 ]
  %.18492.us = phi ptr [ %.083.us, %.lr.ph.us ], [ %89, %59 ]
  %.18691.us = phi ptr [ %.085.us, %.lr.ph.us ], [ %90, %59 ]
  %60 = getelementptr inbounds i16, ptr %.193.us, i64 %.080.us
  %61 = load i16, ptr %60, align 2
  %62 = sext i16 %61 to i32
  %63 = add nsw i32 %.097.us, 8
  %64 = add nsw i32 %63, %62
  %65 = ashr i32 %64, 4
  %66 = load i8, ptr %.18492.us, align 1
  %67 = zext i8 %66 to i32
  %68 = add nsw i32 %65, %67
  %69 = sext i32 %68 to i64
  %70 = getelementptr inbounds i8, ptr %10, i64 %69
  %71 = load i8, ptr %70, align 1
  %72 = zext i8 %71 to i32
  %73 = zext i8 %71 to i64
  %74 = getelementptr inbounds i8, ptr %54, i64 %73
  %75 = load i8, ptr %74, align 1
  %76 = load i8, ptr %.18691.us, align 1
  %77 = add i8 %76, %75
  store i8 %77, ptr %.18691.us, align 1
  %78 = zext i8 %75 to i64
  %79 = getelementptr inbounds i8, ptr %57, i64 %78
  %80 = load i8, ptr %79, align 1
  %81 = zext i8 %80 to i32
  %82 = sub nsw i32 %72, %81
  %83 = mul nsw i32 %82, 3
  %84 = add nsw i32 %83, %.08194.us
  %85 = trunc nsw i32 %84 to i16
  store i16 %85, ptr %.193.us, align 2
  %86 = mul nsw i32 %82, 5
  %87 = add nsw i32 %86, %.07596.us
  %88 = mul nsw i32 %82, 7
  %89 = getelementptr inbounds i8, ptr %.18492.us, i64 %58
  %90 = getelementptr inbounds i8, ptr %.18691.us, i64 %.080.us
  %91 = add i32 %.07695.us, -1
  %.not89.us = icmp eq i32 %91, 0
  br i1 %.not89.us, label %._crit_edge.us, label %59, !llvm.loop !37

._crit_edge.us:                                   ; preds = %59
  %92 = trunc nsw i32 %87 to i16
  store i16 %92, ptr %60, align 2
  %indvars.iv.next118 = add nuw nsw i64 %indvars.iv117, 1
  %exitcond121.not = icmp eq i64 %indvars.iv.next118, %wide.trip.count130
  br i1 %exitcond121.not, label %._crit_edge102.split.us110, label %38, !llvm.loop !35

._crit_edge102.split.us110:                       ; preds = %._crit_edge.us
  %93 = load i32, ptr %16, align 8
  %.not.us = icmp eq i32 %93, 0
  %94 = zext i1 %.not.us to i32
  store i32 %94, ptr %16, align 8
  %indvars.iv.next123 = add nuw nsw i64 %indvars.iv122, 1
  %exitcond126.not = icmp eq i64 %indvars.iv.next123, %wide.trip.count135
  br i1 %exitcond126.not, label %._crit_edge106, label %.lr.ph101.us, !llvm.loop !36

.lr.ph105.split:                                  ; preds = %.lr.ph105.split.preheader, %.lr.ph105.split
  %indvars.iv = phi i64 [ 0, %.lr.ph105.split.preheader ], [ %indvars.iv.next, %.lr.ph105.split ]
  %95 = getelementptr inbounds ptr, ptr %2, i64 %indvars.iv
  %96 = load ptr, ptr %95, align 8
  tail call void @jZeroFar(ptr noundef %96, i64 noundef %14) #6
  %97 = load i32, ptr %16, align 8
  %.not = icmp eq i32 %97, 0
  %98 = zext i1 %.not to i32
  store i32 %98, ptr %16, align 8
  %indvars.iv.next = add nuw nsw i64 %indvars.iv, 1
  %exitcond.not = icmp eq i64 %indvars.iv.next, %wide.trip.count
  br i1 %exitcond.not, label %._crit_edge106, label %.lr.ph105.split, !llvm.loop !36

._crit_edge106:                                   ; preds = %.lr.ph105.split, %._crit_edge102.split.us110, %._crit_edge102.split.us.us.us, %4
  ret void
}